target datalayout = "e-m:e-p270:32:32-p271:32:32-p272:64:64-i64:64-i128:128-f80:128-n8:16:32:64-S128"
target triple = "x86_64-pc-linux-gnu"

%struct._asn1_ctx_t = type { i32, i32, i8, ptr, ptr, ptr, ptr, ptr, %struct.anon, %struct.anon.2, %struct.anon.3, ptr }
%struct.anon = type { i32, i8, i8, i8, ptr, ptr, i32, i32, ptr, ptr, ptr, %union.anon }
%union.anon = type { %struct.anon.0 }
%struct.anon.0 = type { ptr }
%struct.anon.2 = type { ptr, ptr, ptr }
%struct.anon.3 = type { i32, i8, ptr, i32, i32, ptr, ptr, ptr, %union.anon.4 }
%union.anon.4 = type { %struct.anon.5 }
%struct.anon.5 = type { ptr }
%struct._gssapi_oid_value = type { ptr, i32, ptr, ptr, ptr }

@next_level_value = hidden global ptr null, align 8

; Function Attrs: nounwind uwtable
define internal i32 @dissect_spnego_T_mechListMIC(i1 noundef zeroext %0, ptr noundef %1, i32 noundef %2, ptr noundef %3, ptr noundef %4, i32 noundef %5) #0 {
  %7 = alloca i8, align 1
  %8 = alloca ptr, align 8
  %9 = alloca i32, align 4
  %10 = alloca ptr, align 8
  %11 = alloca ptr, align 8
  %12 = alloca i32, align 4
  %13 = alloca ptr, align 8
  %14 = alloca ptr, align 8
  %15 = zext i1 %0 to i8
  store i8 %15, ptr %7, align 1
  store ptr %1, ptr %8, align 8
  store i32 %2, ptr %9, align 4
  store ptr %3, ptr %10, align 8
  store ptr %4, ptr %11, align 8
  store i32 %5, ptr %12, align 4
  %16 = load i8, ptr %7, align 1
  %17 = trunc i8 %16 to i1
  %18 = load ptr, ptr %10, align 8
  %19 = load ptr, ptr %11, align 8
  %20 = load ptr, ptr %8, align 8
  %21 = load i32, ptr %9, align 4
  %22 = load i32, ptr %12, align 4
  %23 = call i32 @dissect_ber_octet_string(i1 noundef zeroext %17, ptr noundef %18, ptr noundef %19, ptr noundef %20, i32 noundef %21, i32 noundef %22, ptr noundef %13)
  store i32 %23, ptr %9, align 4
  %24 = load ptr, ptr %13, align 8
  %25 = icmp ne ptr %24, null
  br i1 %25, label %26, label %45

26:                                               ; preds = %6
  %27 = load ptr, ptr %13, align 8
  %28 = call i32 @tvb_reported_length(ptr noundef %27)
  %29 = icmp ugt i32 %28, 0
  br i1 %29, label %30, label %45

30:                                               ; preds = %26
  %31 = load ptr, ptr @next_level_value, align 8
  store ptr %31, ptr %14, align 8
  %32 = load ptr, ptr %14, align 8
  %33 = icmp ne ptr %32, null
  br i1 %33, label %34, label %44

34:                                               ; preds = %30
  %35 = load ptr, ptr %14, align 8
  %36 = getelementptr inbounds %struct._gssapi_oid_value, ptr %35, i32 0, i32 2
  %37 = load ptr, ptr %36, align 8
  %38 = load ptr, ptr %13, align 8
  %39 = load ptr, ptr %10, align 8
  %40 = getelementptr inbounds %struct._asn1_ctx_t, ptr %39, i32 0, i32 3
  %41 = load ptr, ptr %40, align 8
  %42 = load ptr, ptr %11, align 8
  %43 = call i32 @call_dissector(ptr noundef %37, ptr noundef %38, ptr noundef %41, ptr noundef %42)
  br label %44

44:                                               ; preds = %34, %30
  br label %45

45:                                               ; preds = %44, %26, %6
  %46 = load i32, ptr %9, align 4
  ret i32 %46
}