; Function Attrs: nounwind uwtable
define internal i32 @dissect_spnego_T_mechListMIC(i1 noundef zeroext %0, ptr noundef %1, i32 noundef %2, ptr noundef %3, ptr noundef %4, i32 noundef %5) #0 {
  %7 = alloca ptr, align 8
  %8 = call i32 @dissect_ber_octet_string(i1 noundef zeroext %0, ptr noundef %3, ptr noundef %4, ptr noundef %1, i32 noundef %2, i32 noundef %5, ptr noundef nonnull %7) #6
  %9 = load ptr, ptr %7, align 8
  %.not = icmp eq ptr %9, null
  br i1 %.not, label %21, label %10

10:                                               ; preds = %6
  %11 = call i32 @tvb_reported_length(ptr noundef nonnull %9) #6
  %.not11 = icmp eq i32 %11, 0
  br i1 %.not11, label %21, label %12

12:                                               ; preds = %10
  %13 = load ptr, ptr @next_level_value, align 8
  %.not12 = icmp eq ptr %13, null
  br i1 %.not12, label %21, label %14

14:                                               ; preds = %12
  %15 = getelementptr inbounds nuw i8, ptr %13, i64 16
  %16 = load ptr, ptr %15, align 8
  %17 = load ptr, ptr %7, align 8
  %18 = getelementptr inbounds nuw i8, ptr %3, i64 16
  %19 = load ptr, ptr %18, align 8
  %20 = call i32 @call_dissector(ptr noundef %16, ptr noundef %17, ptr noundef %19, ptr noundef %4) #6
  br label %21

21:                                               ; preds = %12, %14, %10, %6
  ret i32 %8
}